target datalayout = "e-m:e-p270:32:32-p271:32:32-p272:64:64-i64:64-i128:128-f80:128-n8:16:32:64-S128"
target triple = "x86_64-pc-linux-gnu"

%struct._value_string_ext = type { ptr, i32, i32, ptr, ptr }
%struct.expert_field = type { i32, i32 }

@hf_gsm_a_spare_bits = external global i32, align 4
@hf_gsm_a_dtap_ciphering_key_sequence_number = internal global i32 0, align 4
@ei_gsm_a_dtap_missing_mandatory_element = internal global %struct.expert_field zeroinitializer, align 4
@.str.824 = private unnamed_addr constant [1 x i8] zeroinitializer, align 1
@ett_gsm_common_elem = external global [0 x i32], align 4
@gsm_common_elem_strings_ext = external global %struct._value_string_ext, align 8
@.str.1324 = private unnamed_addr constant [20 x i8] c"No key is available\00", align 1
@.str.1325 = private unnamed_addr constant [62 x i8] c"Missing Mandatory element %s%s, rest of dissection is suspect\00", align 1
@.str.1330 = private unnamed_addr constant [17 x i8] c"(Group identity)\00", align 1

; Function Attrs: null_pointer_is_valid sspstrong uwtable
define internal void @dtap_bcc_imm_setup2(ptr noundef %0, ptr noundef %1, ptr noundef %2, i32 noundef %3, i32 noundef %4) #1 {
  %6 = alloca ptr, align 8
  %7 = alloca ptr, align 8
  %8 = alloca ptr, align 8
  %9 = alloca i32, align 4
  %10 = alloca i32, align 4
  %11 = alloca i32, align 4
  %12 = alloca i32, align 4
  %13 = alloca i32, align 4
  %14 = alloca i8, align 1
  %15 = alloca ptr, align 8
  store ptr %0, ptr %6, align 8
  store ptr %1, ptr %7, align 8
  store ptr %2, ptr %8, align 8
  store i32 %3, ptr %9, align 4
  store i32 %4, ptr %10, align 4
  call void @llvm.lifetime.start.p0(i64 4, ptr %11) #7
  call void @llvm.lifetime.start.p0(i64 4, ptr %12) #7
  call void @llvm.lifetime.start.p0(i64 4, ptr %13) #7
  call void @llvm.lifetime.start.p0(i64 1, ptr %14) #7
  call void @llvm.lifetime.start.p0(i64 8, ptr %15) #7
  %16 = load i32, ptr %9, align 4
  store i32 %16, ptr %11, align 4
  %17 = load i32, ptr %10, align 4
  store i32 %17, ptr %13, align 4
  %18 = load ptr, ptr %6, align 8
  %19 = load i32, ptr %11, align 4
  %20 = call zeroext i8 @tvb_get_uint8(ptr noundef %18, i32 noundef %19)
  store i8 %20, ptr %14, align 1
  %21 = load ptr, ptr %7, align 8
  %22 = load i32, ptr @hf_gsm_a_spare_bits, align 4
  %23 = load ptr, ptr %6, align 8
  %24 = load i32, ptr %11, align 4
  %25 = shl i32 %24, 3
  %26 = call ptr @proto_tree_add_bits_item(ptr noundef %21, i32 noundef %22, ptr noundef %23, i32 noundef %25, i32 noundef 4, i32 noundef 0)
  %27 = load ptr, ptr %7, align 8
  %28 = load ptr, ptr %6, align 8
  %29 = load i32, ptr %11, align 4
  %30 = load i32, ptr getelementptr ([0 x i32], ptr @ett_gsm_common_elem, i64 0, i64 1), align 4
  %31 = call ptr @val_to_str_ext_const(i32 noundef 1, ptr noundef @gsm_common_elem_strings_ext, ptr noundef @.str.824)
  %32 = call ptr @proto_tree_add_subtree(ptr noundef %27, ptr noundef %28, i32 noundef %29, i32 noundef 1, i32 noundef %30, ptr noundef null, ptr noundef %31)
  store ptr %32, ptr %15, align 8
  %33 = load ptr, ptr %15, align 8
  %34 = load i32, ptr @hf_gsm_a_spare_bits, align 4
  %35 = load ptr, ptr %6, align 8
  %36 = load i32, ptr %11, align 4
  %37 = shl i32 %36, 3
  %38 = add i32 %37, 4
  %39 = call ptr @proto_tree_add_bits_item(ptr noundef %33, i32 noundef %34, ptr noundef %35, i32 noundef %38, i32 noundef 1, i32 noundef 0)
  %40 = load i8, ptr %14, align 1
  %41 = zext i8 %40 to i32
  %42 = and i32 %41, 7
  switch i32 %42, label %51 [
    i32 7, label %43
  ]

43:                                               ; preds = %5
  %44 = load ptr, ptr %15, align 8
  %45 = load i32, ptr @hf_gsm_a_dtap_ciphering_key_sequence_number, align 4
  %46 = load ptr, ptr %6, align 8
  %47 = load i32, ptr %11, align 4
  %48 = load i8, ptr %14, align 1
  %49 = zext i8 %48 to i32
  %50 = call ptr (ptr, i32, ptr, i32, i32, i32, ptr, ...) @proto_tree_add_uint_format_value(ptr noundef %44, i32 noundef %45, ptr noundef %46, i32 noundef %47, i32 noundef 1, i32 noundef %49, ptr noundef @.str.1324)
  br label %57

51:                                               ; preds = %5
  %52 = load ptr, ptr %15, align 8
  %53 = load i32, ptr @hf_gsm_a_dtap_ciphering_key_sequence_number, align 4
  %54 = load ptr, ptr %6, align 8
  %55 = load i32, ptr %11, align 4
  %56 = call ptr @proto_tree_add_item(ptr noundef %52, i32 noundef %53, ptr noundef %54, i32 noundef %55, i32 noundef 1, i32 noundef 0)
  br label %57

57:                                               ; preds = %51, %43
  %58 = load i32, ptr %11, align 4
  %59 = add i32 %58, 1
  store i32 %59, ptr %11, align 4
  %60 = load i32, ptr %13, align 4
  %61 = add i32 %60, -1
  store i32 %61, ptr %13, align 4
  %62 = load i32, ptr %13, align 4
  %63 = icmp sgt i32 %62, 0
  br i1 %63, label %64, label %80

64:                                               ; preds = %57
  %65 = load ptr, ptr %6, align 8
  %66 = load ptr, ptr %7, align 8
  %67 = load ptr, ptr %8, align 8
  %68 = load i32, ptr %11, align 4
  %69 = load i32, ptr %13, align 4
  %70 = call zeroext i16 @elem_lv(ptr noundef %65, ptr noundef %66, ptr noundef %67, i32 noundef 4, i32 noundef 5, i32 noundef %68, i32 noundef %69, ptr noundef null)
  %71 = zext i16 %70 to i32
  store i32 %71, ptr %12, align 4
  %72 = icmp ugt i32 %71, 0
  br i1 %72, label %73, label %80

73:                                               ; preds = %64
  %74 = load i32, ptr %12, align 4
  %75 = load i32, ptr %11, align 4
  %76 = add i32 %75, %74
  store i32 %76, ptr %11, align 4
  %77 = load i32, ptr %12, align 4
  %78 = load i32, ptr %13, align 4
  %79 = sub i32 %78, %77
  store i32 %79, ptr %13, align 4
  br label %87

80:                                               ; preds = %64, %57
  %81 = load ptr, ptr %7, align 8
  %82 = load ptr, ptr %8, align 8
  %83 = load ptr, ptr %6, align 8
  %84 = load i32, ptr %11, align 4
  %85 = call ptr @get_gsm_a_msg_string(i32 noundef 4, i32 noundef 5)
  %86 = call ptr (ptr, ptr, ptr, ptr, i32, i32, ptr, ...) @proto_tree_add_expert_format(ptr noundef %81, ptr noundef %82, ptr noundef @ei_gsm_a_dtap_missing_mandatory_element, ptr noundef %83, i32 noundef %84, i32 noundef 0, ptr noundef @.str.1325, ptr noundef %85, ptr noundef @.str.824)
  br label %87

87:                                               ; preds = %80, %73
  %88 = load i32, ptr %13, align 4
  %89 = icmp sgt i32 %88, 0
  br i1 %89, label %90, label %105

90:                                               ; preds = %87
  %91 = load ptr, ptr %6, align 8
  %92 = load ptr, ptr %7, align 8
  %93 = load ptr, ptr %8, align 8
  %94 = load i32, ptr %11, align 4
  %95 = call zeroext i16 @elem_v(ptr noundef %91, ptr noundef %92, ptr noundef %93, i32 noundef 3, i32 noundef 5, i32 noundef %94, ptr noundef null)
  %96 = zext i16 %95 to i32
  store i32 %96, ptr %12, align 4
  %97 = icmp ugt i32 %96, 0
  br i1 %97, label %98, label %105

98:                                               ; preds = %90
  %99 = load i32, ptr %12, align 4
  %100 = load i32, ptr %11, align 4
  %101 = add i32 %100, %99
  store i32 %101, ptr %11, align 4
  %102 = load i32, ptr %12, align 4
  %103 = load i32, ptr %13, align 4
  %104 = sub i32 %103, %102
  store i32 %104, ptr %13, align 4
  br label %112

105:                                              ; preds = %90, %87
  %106 = load ptr, ptr %7, align 8
  %107 = load ptr, ptr %8, align 8
  %108 = load ptr, ptr %6, align 8
  %109 = load i32, ptr %11, align 4
  %110 = call ptr @get_gsm_a_msg_string(i32 noundef 3, i32 noundef 5)
  %111 = call ptr (ptr, ptr, ptr, ptr, i32, i32, ptr, ...) @proto_tree_add_expert_format(ptr noundef %106, ptr noundef %107, ptr noundef @ei_gsm_a_dtap_missing_mandatory_element, ptr noundef %108, i32 noundef %109, i32 noundef 0, ptr noundef @.str.1325, ptr noundef %110, ptr noundef @.str.824)
  br label %112

112:                                              ; preds = %105, %98
  %113 = load i32, ptr %13, align 4
  %114 = icmp sgt i32 %113, 0
  br i1 %114, label %115, label %130

115:                                              ; preds = %112
  %116 = load ptr, ptr %6, align 8
  %117 = load ptr, ptr %7, align 8
  %118 = load ptr, ptr %8, align 8
  %119 = load i32, ptr %11, align 4
  %120 = call zeroext i16 @elem_v(ptr noundef %116, ptr noundef %117, ptr noundef %118, i32 noundef 1, i32 noundef 90, i32 noundef %119, ptr noundef @.str.1330)
  %121 = zext i16 %120 to i32
  store i32 %121, ptr %12, align 4
  %122 = icmp ugt i32 %121, 0
  br i1 %122, label %123, label %130

123:                                              ; preds = %115
  %124 = load i32, ptr %12, align 4
  %125 = load i32, ptr %11, align 4
  %126 = add i32 %125, %124
  store i32 %126, ptr %11, align 4
  %127 = load i32, ptr %12, align 4
  %128 = load i32, ptr %13, align 4
  %129 = sub i32 %128, %127
  store i32 %129, ptr %13, align 4
  br label %137

130:                                              ; preds = %115, %112
  %131 = load ptr, ptr %7, align 8
  %132 = load ptr, ptr %8, align 8
  %133 = load ptr, ptr %6, align 8
  %134 = load i32, ptr %11, align 4
  %135 = call ptr @get_gsm_a_msg_string(i32 noundef 1, i32 noundef 90)
  %136 = call ptr (ptr, ptr, ptr, ptr, i32, i32, ptr, ...) @proto_tree_add_expert_format(ptr noundef %131, ptr noundef %132, ptr noundef @ei_gsm_a_dtap_missing_mandatory_element, ptr noundef %133, i32 noundef %134, i32 noundef 0, ptr noundef @.str.1325, ptr noundef %135, ptr noundef @.str.1330)
  br label %137

137:                                              ; preds = %130, %123
  %138 = load i32, ptr %13, align 4
  %139 = icmp sgt i32 %138, 0
  br i1 %139, label %140, label %155

140:                                              ; preds = %137
  %141 = load ptr, ptr %6, align 8
  %142 = load ptr, ptr %7, align 8
  %143 = load ptr, ptr %8, align 8
  %144 = load i32, ptr %11, align 4
  %145 = call zeroext i16 @elem_v(ptr noundef %141, ptr noundef %142, ptr noundef %143, i32 noundef 1, i32 noundef 95, i32 noundef %144, ptr noundef null)
  %146 = zext i16 %145 to i32
  store i32 %146, ptr %12, align 4
  %147 = icmp ugt i32 %146, 0
  br i1 %147, label %148, label %155

148:                                              ; preds = %140
  %149 = load i32, ptr %12, align 4
  %150 = load i32, ptr %11, align 4
  %151 = add i32 %150, %149
  store i32 %151, ptr %11, align 4
  %152 = load i32, ptr %12, align 4
  %153 = load i32, ptr %13, align 4
  %154 = sub i32 %153, %152
  store i32 %154, ptr %13, align 4
  br label %162

155:                                              ; preds = %140, %137
  %156 = load ptr, ptr %7, align 8
  %157 = load ptr, ptr %8, align 8
  %158 = load ptr, ptr %6, align 8
  %159 = load i32, ptr %11, align 4
  %160 = call ptr @get_gsm_a_msg_string(i32 noundef 1, i32 noundef 95)
  %161 = call ptr (ptr, ptr, ptr, ptr, i32, i32, ptr, ...) @proto_tree_add_expert_format(ptr noundef %156, ptr noundef %157, ptr noundef @ei_gsm_a_dtap_missing_mandatory_element, ptr noundef %158, i32 noundef %159, i32 noundef 0, ptr noundef @.str.1325, ptr noundef %160, ptr noundef @.str.824)
  br label %162

162:                                              ; preds = %155, %148
  call void @llvm.lifetime.end.p0(i64 8, ptr %15) #7
  call void @llvm.lifetime.end.p0(i64 1, ptr %14) #7
  call void @llvm.lifetime.end.p0(i64 4, ptr %13) #7
  call void @llvm.lifetime.end.p0(i64 4, ptr %12) #7
  call void @llvm.lifetime.end.p0(i64 4, ptr %11) #7
  ret void
}